; Function Attrs: mustprogress nounwind uwtable
define hidden noundef i64 @_ZN29CompositeElapsedCounterSource11nanosecondsE7PairRepIllE(i64 %0, i64 %1) local_unnamed_addr #0 align 2 {
  %3 = load atomic i8, ptr @_ZGVZN20ElapsedCounterSource9frequencyEvE4freq acquire, align 8
  %4 = icmp eq i8 %3, 0
  br i1 %4, label %5, label %_Z10conversionI20ElapsedCounterSourceLi1000000000EEdRNT_4TypeE.exit, !prof !6

5:                                                ; preds = %2
  %6 = tail call i32 @__cxa_guard_acquire(ptr nonnull @_ZGVZN20ElapsedCounterSource9frequencyEvE4freq) #3
  %.not.i.i = icmp eq i32 %6, 0
  br i1 %.not.i.i, label %_Z10conversionI20ElapsedCounterSourceLi1000000000EEdRNT_4TypeE.exit, label %7

7:                                                ; preds = %5
  %8 = tail call noundef i64 @_ZN2os17elapsed_frequencyEv() #3
  store i64 %8, ptr @_ZZN20ElapsedCounterSource9frequencyEvE4freq, align 8
  tail call void @__cxa_guard_release(ptr nonnull @_ZGVZN20ElapsedCounterSource9frequencyEvE4freq) #3
  br label %_Z10conversionI20ElapsedCounterSourceLi1000000000EEdRNT_4TypeE.exit

_Z10conversionI20ElapsedCounterSourceLi1000000000EEdRNT_4TypeE.exit: ; preds = %2, %5, %7
  %9 = sitofp i64 %0 to double
  %10 = load i64, ptr @_ZZN20ElapsedCounterSource9frequencyEvE4freq, align 8
  %11 = uitofp i64 %10 to double
  %12 = fdiv double 1.000000e+09, %11
  %13 = fmul double %12, %9
  %14 = fptoui double %13 to i64
  ret i64 %14
}